; Function Attrs: mustprogress sspstrong uwtable
define noundef i32 @_ZN4FLAC7Encoder4File8init_oggERKNSt7__cxx1112basic_stringIcSt11char_traitsIcESaIcEEE(ptr noundef nonnull align 8 dereferenceable(16) %this, ptr noundef nonnull align 8 dereferenceable(32) %filename) unnamed_addr #0 align 2 {
entry:
  %call = tail call noundef ptr @_ZNKSt7__cxx1112basic_stringIcSt11char_traitsIcESaIcEE5c_strEv(ptr noundef nonnull align 8 dereferenceable(32) %filename) #12
  %vtable = load ptr, ptr %this, align 8
  %vfn = getelementptr inbounds i8, ptr %vtable, i64 496
  %0 = load ptr, ptr %vfn, align 8
  %call2 = tail call noundef i32 %0(ptr noundef nonnull align 8 dereferenceable(16) %this, ptr noundef %call)
  ret i32 %call2
}